target datalayout = "e-m:e-p270:32:32-p271:32:32-p272:64:64-i64:64-i128:128-f80:128-n8:16:32:64-S128"
target triple = "x86_64-pc-linux-gnu"

%struct.mlib_image = type { i32, i32, i32, i32, i32, i32, ptr, ptr, [4 x i8], i32, i32, [3 x i32] }

; Function Attrs: nounwind uwtable
define hidden ptr @mlib_ImageSetSubimage(ptr noundef %0, ptr noundef %1, i32 noundef %2, i32 noundef %3, i32 noundef %4, i32 noundef %5) #0 {
  %7 = alloca ptr, align 8
  %8 = alloca ptr, align 8
  %9 = alloca ptr, align 8
  %10 = alloca i32, align 4
  %11 = alloca i32, align 4
  %12 = alloca i32, align 4
  %13 = alloca i32, align 4
  %14 = alloca i32, align 4
  %15 = alloca i32, align 4
  %16 = alloca i32, align 4
  %17 = alloca ptr, align 8
  %18 = alloca i32, align 4
  store ptr %0, ptr %8, align 8
  store ptr %1, ptr %9, align 8
  store i32 %2, ptr %10, align 4
  store i32 %3, ptr %11, align 4
  store i32 %4, ptr %12, align 4
  store i32 %5, ptr %13, align 4
  %19 = load ptr, ptr %9, align 8
  %20 = getelementptr inbounds %struct.mlib_image, ptr %19, i32 0, i32 0
  %21 = load i32, ptr %20, align 8
  store i32 %21, ptr %14, align 4
  %22 = load ptr, ptr %9, align 8
  %23 = getelementptr inbounds %struct.mlib_image, ptr %22, i32 0, i32 1
  %24 = load i32, ptr %23, align 4
  store i32 %24, ptr %15, align 4
  %25 = load ptr, ptr %9, align 8
  %26 = getelementptr inbounds %struct.mlib_image, ptr %25, i32 0, i32 4
  %27 = load i32, ptr %26, align 8
  store i32 %27, ptr %16, align 4
  %28 = load ptr, ptr %9, align 8
  %29 = getelementptr inbounds %struct.mlib_image, ptr %28, i32 0, i32 6
  %30 = load ptr, ptr %29, align 8
  store ptr %30, ptr %17, align 8
  store i32 0, ptr %18, align 4
  %31 = load i32, ptr %11, align 4
  %32 = load i32, ptr %16, align 4
  %33 = mul nsw i32 %31, %32
  %34 = load ptr, ptr %17, align 8
  %35 = sext i32 %33 to i64
  %36 = getelementptr inbounds i8, ptr %34, i64 %35
  store ptr %36, ptr %17, align 8
  %37 = load i32, ptr %14, align 4
  switch i32 %37, label %93 [
    i32 5, label %38
    i32 4, label %46
    i32 3, label %46
    i32 6, label %54
    i32 2, label %54
    i32 1, label %62
    i32 0, label %69
  ]

38:                                               ; preds = %6
  %39 = load i32, ptr %15, align 4
  %40 = load i32, ptr %10, align 4
  %41 = mul nsw i32 %39, %40
  %42 = mul nsw i32 %41, 8
  %43 = load ptr, ptr %17, align 8
  %44 = sext i32 %42 to i64
  %45 = getelementptr inbounds i8, ptr %43, i64 %44
  store ptr %45, ptr %17, align 8
  br label %94

46:                                               ; preds = %6, %6
  %47 = load i32, ptr %15, align 4
  %48 = load i32, ptr %10, align 4
  %49 = mul nsw i32 %47, %48
  %50 = mul nsw i32 %49, 4
  %51 = load ptr, ptr %17, align 8
  %52 = sext i32 %50 to i64
  %53 = getelementptr inbounds i8, ptr %51, i64 %52
  store ptr %53, ptr %17, align 8
  br label %94

54:                                               ; preds = %6, %6
  %55 = load i32, ptr %15, align 4
  %56 = load i32, ptr %10, align 4
  %57 = mul nsw i32 %55, %56
  %58 = mul nsw i32 %57, 2
  %59 = load ptr, ptr %17, align 8
  %60 = sext i32 %58 to i64
  %61 = getelementptr inbounds i8, ptr %59, i64 %60
  store ptr %61, ptr %17, align 8
  br label %94

62:                                               ; preds = %6
  %63 = load i32, ptr %15, align 4
  %64 = load i32, ptr %10, align 4
  %65 = mul nsw i32 %63, %64
  %66 = load ptr, ptr %17, align 8
  %67 = sext i32 %65 to i64
  %68 = getelementptr inbounds i8, ptr %66, i64 %67
  store ptr %68, ptr %17, align 8
  br label %94

69:                                               ; preds = %6
  %70 = load ptr, ptr %9, align 8
  %71 = getelementptr inbounds %struct.mlib_image, ptr %70, i32 0, i32 9
  %72 = load i32, ptr %71, align 4
  %73 = load i32, ptr %15, align 4
  %74 = load i32, ptr %10, align 4
  %75 = mul nsw i32 %73, %74
  %76 = add nsw i32 %72, %75
  store i32 %76, ptr %18, align 4
  %77 = load i32, ptr %18, align 4
  %78 = icmp sge i32 %77, 0
  br i1 %78, label %79, label %82

79:                                               ; preds = %69
  %80 = load i32, ptr %18, align 4
  %81 = sdiv i32 %80, 8
  br label %86

82:                                               ; preds = %69
  %83 = load i32, ptr %18, align 4
  %84 = sub nsw i32 %83, 7
  %85 = sdiv i32 %84, 8
  br label %86

86:                                               ; preds = %82, %79
  %87 = phi i32 [ %81, %79 ], [ %85, %82 ]
  %88 = load ptr, ptr %17, align 8
  %89 = sext i32 %87 to i64
  %90 = getelementptr inbounds i8, ptr %88, i64 %89
  store ptr %90, ptr %17, align 8
  %91 = load i32, ptr %18, align 4
  %92 = and i32 %91, 7
  store i32 %92, ptr %18, align 4
  br label %94

93:                                               ; preds = %6
  store ptr null, ptr %7, align 8
  br label %136

94:                                               ; preds = %86, %62, %54, %46, %38
  %95 = load i32, ptr %13, align 4
  %96 = icmp sgt i32 %95, 0
  br i1 %96, label %97, label %106

97:                                               ; preds = %94
  %98 = load ptr, ptr %8, align 8
  %99 = load i32, ptr %14, align 4
  %100 = load i32, ptr %15, align 4
  %101 = load i32, ptr %12, align 4
  %102 = load i32, ptr %13, align 4
  %103 = load i32, ptr %16, align 4
  %104 = load ptr, ptr %17, align 8
  %105 = call ptr @mlib_ImageSet(ptr noundef %98, i32 noundef %99, i32 noundef %100, i32 noundef %101, i32 noundef %102, i32 noundef %103, ptr noundef %104)
  store ptr %105, ptr %8, align 8
  br label %124

106:                                              ; preds = %94
  %107 = load i32, ptr %13, align 4
  %108 = sub nsw i32 0, %107
  store i32 %108, ptr %13, align 4
  %109 = load ptr, ptr %8, align 8
  %110 = load i32, ptr %14, align 4
  %111 = load i32, ptr %15, align 4
  %112 = load i32, ptr %12, align 4
  %113 = load i32, ptr %13, align 4
  %114 = load i32, ptr %16, align 4
  %115 = sub nsw i32 0, %114
  %116 = load ptr, ptr %17, align 8
  %117 = load i32, ptr %13, align 4
  %118 = sub nsw i32 %117, 1
  %119 = load i32, ptr %16, align 4
  %120 = mul nsw i32 %118, %119
  %121 = sext i32 %120 to i64
  %122 = getelementptr inbounds i8, ptr %116, i64 %121
  %123 = call ptr @mlib_ImageSet(ptr noundef %109, i32 noundef %110, i32 noundef %111, i32 noundef %112, i32 noundef %113, i32 noundef %115, ptr noundef %122)
  store ptr %123, ptr %8, align 8
  br label %124

124:                                              ; preds = %106, %97
  %125 = load ptr, ptr %8, align 8
  %126 = icmp ne ptr %125, null
  br i1 %126, label %127, label %134

127:                                              ; preds = %124
  %128 = load i32, ptr %14, align 4
  %129 = icmp eq i32 %128, 0
  br i1 %129, label %130, label %134

130:                                              ; preds = %127
  %131 = load i32, ptr %18, align 4
  %132 = load ptr, ptr %8, align 8
  %133 = getelementptr inbounds %struct.mlib_image, ptr %132, i32 0, i32 9
  store i32 %131, ptr %133, align 4
  br label %134

134:                                              ; preds = %130, %127, %124
  %135 = load ptr, ptr %8, align 8
  store ptr %135, ptr %7, align 8
  br label %136

136:                                              ; preds = %134, %93
  %137 = load ptr, ptr %7, align 8
  ret ptr %137
}