; Function Attrs: mustprogress nofree norecurse nosync nounwind willreturn memory(write, argmem: readwrite, inaccessiblemem: none) uwtable
define hidden noundef ptr @mlib_ImageSetSubimage(ptr noundef %0, ptr nocapture noundef readonly %1, i32 noundef %2, i32 noundef %3, i32 noundef %4, i32 noundef %5) local_unnamed_addr #3 {
  %7 = load i32, ptr %1, align 8
  %8 = getelementptr inbounds i8, ptr %1, i64 4
  %9 = load i32, ptr %8, align 4
  %10 = getelementptr inbounds i8, ptr %1, i64 16
  %11 = load i32, ptr %10, align 8
  %12 = getelementptr inbounds i8, ptr %1, i64 24
  %13 = load ptr, ptr %12, align 8
  %14 = mul nsw i32 %11, %3
  %15 = sext i32 %14 to i64
  %16 = getelementptr inbounds i8, ptr %13, i64 %15
  switch i32 %7, label %65 [
    i32 5, label %17
    i32 4, label %22
    i32 3, label %22
    i32 6, label %27
    i32 2, label %27
    i32 1, label %32
    i32 0, label %36
  ]

17:                                               ; preds = %6
  %18 = mul nsw i32 %9, %2
  %19 = shl nsw i32 %18, 3
  %20 = sext i32 %19 to i64
  %21 = getelementptr inbounds i8, ptr %16, i64 %20
  br label %48

22:                                               ; preds = %6, %6
  %23 = mul nsw i32 %9, %2
  %24 = shl nsw i32 %23, 2
  %25 = sext i32 %24 to i64
  %26 = getelementptr inbounds i8, ptr %16, i64 %25
  br label %48

27:                                               ; preds = %6, %6
  %28 = mul nsw i32 %9, %2
  %29 = shl nsw i32 %28, 1
  %30 = sext i32 %29 to i64
  %31 = getelementptr inbounds i8, ptr %16, i64 %30
  br label %48

32:                                               ; preds = %6
  %33 = mul nsw i32 %9, %2
  %34 = sext i32 %33 to i64
  %35 = getelementptr inbounds i8, ptr %16, i64 %34
  br label %48

36:                                               ; preds = %6
  %37 = getelementptr inbounds i8, ptr %1, i64 44
  %38 = load i32, ptr %37, align 4
  %39 = mul nsw i32 %9, %2
  %40 = add nsw i32 %38, %39
  %41 = lshr i32 %40, 3
  %.nonneg = sub i32 7, %40
  %42 = lshr i32 %.nonneg, 3
  %.neg = sub nsw i32 0, %42
  %43 = icmp slt i32 %40, 0
  %44 = select i1 %43, i32 %.neg, i32 %41
  %45 = sext i32 %44 to i64
  %46 = getelementptr inbounds i8, ptr %16, i64 %45
  %47 = and i32 %40, 7
  br label %48

48:                                               ; preds = %36, %32, %27, %22, %17
  %.052 = phi ptr [ %46, %36 ], [ %35, %32 ], [ %31, %27 ], [ %26, %22 ], [ %21, %17 ]
  %.0 = phi i32 [ %47, %36 ], [ 0, %32 ], [ 0, %27 ], [ 0, %22 ], [ 0, %17 ]
  %49 = icmp sgt i32 %5, 0
  br i1 %49, label %50, label %52

50:                                               ; preds = %48
  %51 = tail call ptr @mlib_ImageSet(ptr noundef %0, i32 noundef %7, i32 noundef %9, i32 noundef %4, i32 noundef %5, i32 noundef %11, ptr noundef %.052)
  br label %60

52:                                               ; preds = %48
  %53 = sub nsw i32 0, %5
  %54 = sub nsw i32 0, %11
  %55 = xor i32 %5, -1
  %56 = mul nsw i32 %11, %55
  %57 = sext i32 %56 to i64
  %58 = getelementptr inbounds i8, ptr %.052, i64 %57
  %59 = tail call ptr @mlib_ImageSet(ptr noundef %0, i32 noundef %7, i32 noundef %9, i32 noundef %4, i32 noundef %53, i32 noundef %54, ptr noundef %58)
  br label %60

60:                                               ; preds = %52, %50
  %.054 = phi ptr [ %51, %50 ], [ %59, %52 ]
  %61 = icmp ne ptr %.054, null
  %62 = icmp eq i32 %7, 0
  %or.cond = and i1 %62, %61
  br i1 %or.cond, label %63, label %65

63:                                               ; preds = %60
  %64 = getelementptr inbounds i8, ptr %.054, i64 44
  store i32 %.0, ptr %64, align 4
  br label %65

65:                                               ; preds = %60, %63, %6
  %.053 = phi ptr [ null, %6 ], [ %.054, %63 ], [ %.054, %60 ]
  ret ptr %.053
}